Certificate:
    Data:
        Version: 3 (0x2)
        Serial Number: 1 (0x1)
        Signature Algorithm: sha256WithRSAEncryption
        Issuer: CN=devcert
        Validity
            Not Before: May  8 13:59:29 2020 GMT
            Not After : Aug 11 13:59:29 2022 GMT
        Subject: CN=localhost
        Subject Public Key Info:
            Public Key Algorithm: rsaEncryption
                RSA Public-Key: (2048 bit)
                Modulus:
                    00:bc:09:3a:60:4a:51:21:94:47:9d:98:0c:77:ee:
                    eb:af:f2:88:41:d5:d6:24:ba:2a:fd:1f:05:08:52:
                    b8:3c:52:b0:a6:29:35:94:ca:d7:10:9d:c3:ce:08:
                    10:4f:05:28:35:3e:79:3f:12:2e:59:ae:ec:8f:46:
                    bc:f6:d3:be:ac:20:3e:25:2d:49:85:2c:30:d4:eb:
                    1e:ef:9e:35:00:f8:6e:d7:e1:d0:82:7f:19:be:50:
                    65:59:3d:b6:28:18:43:27:03:9d:ab:df:98:ef:80:
                    3d:6a:a3:c3:04:1d:bf:63:58:a1:db:76:2d:ad:1e:
                    2d:3a:fb:78:ab:91:e8:98:f2:fa:de:f5:d2:61:7b:
                    87:37:0b:bf:4d:32:53:f3:49:d0:c4:4f:f8:86:02:
                    e6:98:91:6f:0e:41:74:ec:23:89:f2:e4:c8:7b:76:
                    cb:24:22:a9:ec:e2:f5:60:54:d0:c7:61:65:43:2a:
                    4d:9a:77:53:7a:e6:b1:a9:28:02:e5:b2:31:73:3e:
                    4e:ab:a5:c0:b8:17:1b:de:fd:9f:03:16:84:84:ec:
                    d4:1f:66:1a:b7:e8:86:74:89:30:30:71:4e:3e:d1:
                    6a:5c:ea:3a:92:53:2d:78:b9:af:18:e9:a0:7c:bb:
                    ba:3a:2d:4e:44:a7:a2:73:5f:94:89:92:98:34:09:
                    cf:cb
                Exponent: 65537 (0x10001)
        X509v3 extensions:
            X509v3 Basic Constraints: critical
                CA:FALSE
            X509v3 Subject Key Identifier: 
                6F:B1:FC:1B:54:2F:2E:77:D9:10:BD:39:03:30:B3:A9:47:D3:21:B2
            X509v3 Authority Key Identifier: 
                keyid:30:DA:F1:1E:5C:34:1E:FD:BC:58:17:F1:78:40:0E:E3:39:40:E8:3B
                DirName:/CN=devcert
                serial:58:CB:2C:4B:9C:74:AA:BD:53:00:8C:4C:65:DA:75:AE:FA:F0:ED:7A

            X509v3 Key Usage: critical
                Digital Signature, Key Encipherment
            X509v3 Extended Key Usage: 
                TLS Web Server Authentication
            X509v3 Subject Alternative Name: 
                DNS:localhost, DNS:*.localhost
    Signature Algorithm: sha256WithRSAEncryption
         57:17:7b:89:6f:ba:07:b6:d6:39:73:2c:36:c8:25:24:47:c0:
         17:53:92:a6:cf:a4:55:00:f4:8e:21:96:f8:34:74:60:c8:05:
         15:c8:11:93:14:6d:94:3f:db:8a:e3:3c:27:9c:0b:a3:11:fc:
         a3:b8:b0:90:d1:69:ad:5e:20:e6:e1:7e:58:ae:6a:04:a1:7e:
         2e:49:2a:d1:27:80:ae:9c:50:4a:0e:aa:d3:db:b8:fd:5d:0a:
         ce:08:e3:13:44:27:91:ba:5b:9a:d5:fa:2c:45:0c:36:e7:4d:
         09:d3:45:f2:b6:5b:7c:9f:92:b9:6e:67:a3:6f:cc:c2:bf:ea:
         bb:c3:f2:bf:5c:6d:f0:fd:8e:6d:cb:d1:1d:db:7a:e5:ab:f4:
         94:1b:f2:37:be:01:eb:48:1e:dc:80:dd:a0:be:07:2a:f9:47:
         c3:71:f3:50:d3:de:2f:2c:a4:2b:fd:14:8e:87:ee:48:c8:0c:
         e3:c1:02:d4:f6:09:95:9d:58:a8:dc:b5:ce:c0:2c:ae:d6:ea:
         7d:ab:23:92:e5:5b:87:64:ca:a2:e3:a3:eb:e5:61:ba:cd:08:
         8c:98:a2:4f:4d:0d:cf:a6:b2:65:a1:fc:8d:17:38:5c:33:d7:
         e4:aa:26:44:24:5a:02:89:e4:96:86:3d:c8:c1:79:b7:8d:31:
         5c:09:87:fa
-----BEGIN CERTIFICATE-----
MIIDaTCCAlGgAwIBAgIBATANBgkqhkiG9w0BAQsFADASMRAwDgYDVQQDDAdkZXZj
ZXJ0MB4XDTIwMDUwODEzNTkyOVoXDTIyMDgxMTEzNTkyOVowFDESMBAGA1UEAwwJ
bG9jYWxob3N0MIIBIjANBgkqhkiG9w0BAQEFAAOCAQ8AMIIBCgKCAQEAvAk6YEpR
IZRHnZgMd+7rr/KIQdXWJLoq/R8FCFK4PFKwpik1lMrXEJ3DzggQTwUoNT55PxIu
Wa7sj0a89tO+rCA+JS1JhSww1Ose7541APhu1+HQgn8ZvlBlWT22KBhDJwOdq9+Y
74A9aqPDBB2/Y1ih23YtrR4tOvt4q5HomPL63vXSYXuHNwu/TTJT80nQxE/4hgLm
mJFvDkF07COJ8uTIe3bLJCKp7OL1YFTQx2FlQypNmndTeuaxqSgC5bIxcz5Oq6XA
uBcb3v2fAxaEhOzUH2Yat+iGdIkwMHFOPtFqXOo6klMteLmvGOmgfLu6Oi1ORKei
c1+UiZKYNAnPywIDAQABo4HHMIHEMAwGA1UdEwEB/wQCMAAwHQYDVR0OBBYEFG+x
/BtULy532RC9OQMws6lH0yGyME0GA1UdIwRGMESAFDDa8R5cNB79vFgX8XhADuM5
QOg7oRakFDASMRAwDgYDVQQDDAdkZXZjZXJ0ghRYyyxLnHSqvVMAjExl2nWu+vDt
ejAOBgNVHQ8BAf8EBAMCBaAwEwYDVR0lBAwwCgYIKwYBBQUHAwEwIQYDVR0RBBow
GIIJbG9jYWxob3N0ggsqLmxvY2FsaG9zdDANBgkqhkiG9w0BAQsFAAOCAQEAVxd7
iW+6B7bWOXMsNsglJEfAF1OSps+kVQD0jiGW+DR0YMgFFcgRkxRtlD/biuM8J5wL
oxH8o7iwkNFprV4g5uF+WK5qBKF+Lkkq0SeArpxQSg6q09u4/V0KzgjjE0Qnkbpb
mtX6LEUMNudNCdNF8rZbfJ+SuW5no2/Mwr/qu8Pyv1xt8P2ObcvRHdt65av0lBvy
N74B60ge3IDdoL4HKvlHw3HzUNPeLyykK/0UjofuSMgM48EC1PYJlZ1YqNy1zsAs
rtbqfasjkuVbh2TKouOj6+Vhus0IjJiiT00Nz6ayZaH8jRc4XDPX5KomRCRaAonk
loY9yMF5t40xXAmH+g==
-----END CERTIFICATE-----
